target datalayout = "e-m:e-p270:32:32-p271:32:32-p272:64:64-i64:64-i128:128-f80:128-n8:16:32:64-S128"
target triple = "x86_64-pc-linux-gnu"

@.str.28 = private unnamed_addr constant [34 x i8] c"../openssl/test/evp_extra_test2.c\00", align 1
@.str.31 = private unnamed_addr constant [46 x i8] c"sha256 = EVP_MD_fetch(NULL, \22SHA2-256\22, NULL)\00", align 1
@.str.32 = private unnamed_addr constant [9 x i8] c"SHA2-256\00", align 1
@.str.64 = private unnamed_addr constant [47 x i8] c"provider = OSSL_PROVIDER_load(NULL, \22default\22)\00", align 1
@.str.65 = private unnamed_addr constant [8 x i8] c"default\00", align 1

; Function Attrs: nounwind uwtable
define internal i32 @test_provider_unload_effective(i32 noundef %0) #0 {
  %2 = alloca i32, align 4
  %3 = alloca ptr, align 8
  %4 = alloca ptr, align 8
  %5 = alloca i32, align 4
  store i32 %0, ptr %2, align 4, !tbaa !11
  call void @llvm.lifetime.start.p0(i64 8, ptr %3) #7
  store ptr null, ptr %3, align 8, !tbaa !9
  call void @llvm.lifetime.start.p0(i64 8, ptr %4) #7
  store ptr null, ptr %4, align 8, !tbaa !27
  call void @llvm.lifetime.start.p0(i64 4, ptr %5) #7
  store i32 0, ptr %5, align 4, !tbaa !11
  %6 = call ptr @OSSL_PROVIDER_load(ptr noundef null, ptr noundef @.str.65)
  store ptr %6, ptr %4, align 8, !tbaa !27
  %7 = call i32 @test_ptr(ptr noundef @.str.28, i32 noundef 722, ptr noundef @.str.64, ptr noundef %6)
  %8 = icmp ne i32 %7, 0
  br i1 %8, label %9, label %13

9:                                                ; preds = %1
  %10 = call ptr @EVP_MD_fetch(ptr noundef null, ptr noundef @.str.32, ptr noundef null)
  store ptr %10, ptr %3, align 8, !tbaa !9
  %11 = call i32 @test_ptr(ptr noundef @.str.28, i32 noundef 723, ptr noundef @.str.31, ptr noundef %10)
  %12 = icmp ne i32 %11, 0
  br i1 %12, label %14, label %13

13:                                               ; preds = %9, %1
  br label %31

14:                                               ; preds = %9
  %15 = load i32, ptr %2, align 4, !tbaa !11
  %16 = icmp sgt i32 %15, 0
  br i1 %16, label %17, label %21

17:                                               ; preds = %14
  %18 = load ptr, ptr %4, align 8, !tbaa !27
  %19 = call i32 @OSSL_PROVIDER_unload(ptr noundef %18)
  store ptr null, ptr %4, align 8, !tbaa !27
  %20 = load ptr, ptr %3, align 8, !tbaa !9
  call void @EVP_MD_free(ptr noundef %20)
  store ptr null, ptr %3, align 8, !tbaa !9
  br label %25

21:                                               ; preds = %14
  %22 = load ptr, ptr %3, align 8, !tbaa !9
  call void @EVP_MD_free(ptr noundef %22)
  store ptr null, ptr %3, align 8, !tbaa !9
  %23 = load ptr, ptr %4, align 8, !tbaa !27
  %24 = call i32 @OSSL_PROVIDER_unload(ptr noundef %23)
  store ptr null, ptr %4, align 8, !tbaa !27
  br label %25

25:                                               ; preds = %21, %17
  %26 = call ptr @EVP_MD_fetch(ptr noundef null, ptr noundef @.str.32, ptr noundef null)
  store ptr %26, ptr %3, align 8, !tbaa !9
  %27 = call i32 @test_ptr_null(ptr noundef @.str.28, i32 noundef 742, ptr noundef @.str.31, ptr noundef %26)
  %28 = icmp ne i32 %27, 0
  br i1 %28, label %30, label %29

29:                                               ; preds = %25
  br label %31

30:                                               ; preds = %25
  store i32 1, ptr %5, align 4, !tbaa !11
  br label %31

31:                                               ; preds = %30, %29, %13
  %32 = load ptr, ptr %3, align 8, !tbaa !9
  call void @EVP_MD_free(ptr noundef %32)
  %33 = load ptr, ptr %4, align 8, !tbaa !27
  %34 = call i32 @OSSL_PROVIDER_unload(ptr noundef %33)
  %35 = load i32, ptr %5, align 4, !tbaa !11
  call void @llvm.lifetime.end.p0(i64 4, ptr %5) #7
  call void @llvm.lifetime.end.p0(i64 8, ptr %4) #7
  call void @llvm.lifetime.end.p0(i64 8, ptr %3) #7
  ret i32 %35
}