; Function Attrs: nounwind uwtable
define internal range(i32 0, 2) i32 @test_provider_unload_effective(i32 noundef %0) #0 {
  %2 = tail call ptr @OSSL_PROVIDER_load(ptr noundef null, ptr noundef nonnull @.str.65) #7
  %3 = tail call i32 @test_ptr(ptr noundef nonnull @.str.28, i32 noundef 722, ptr noundef nonnull @.str.64, ptr noundef %2) #7
  %.not = icmp eq i32 %3, 0
  br i1 %.not, label %16, label %4

4:                                                ; preds = %1
  %5 = tail call ptr @EVP_MD_fetch(ptr noundef null, ptr noundef nonnull @.str.32, ptr noundef null) #7
  %6 = tail call i32 @test_ptr(ptr noundef nonnull @.str.28, i32 noundef 723, ptr noundef nonnull @.str.31, ptr noundef %5) #7
  %.not9 = icmp eq i32 %6, 0
  br i1 %.not9, label %16, label %7

7:                                                ; preds = %4
  %8 = icmp sgt i32 %0, 0
  br i1 %8, label %9, label %11

9:                                                ; preds = %7
  %10 = tail call i32 @OSSL_PROVIDER_unload(ptr noundef %2) #7
  tail call void @EVP_MD_free(ptr noundef %5) #7
  br label %13

11:                                               ; preds = %7
  tail call void @EVP_MD_free(ptr noundef %5) #7
  %12 = tail call i32 @OSSL_PROVIDER_unload(ptr noundef %2) #7
  br label %13

13:                                               ; preds = %11, %9
  %14 = tail call ptr @EVP_MD_fetch(ptr noundef null, ptr noundef nonnull @.str.32, ptr noundef null) #7
  %15 = tail call i32 @test_ptr_null(ptr noundef nonnull @.str.28, i32 noundef 742, ptr noundef nonnull @.str.31, ptr noundef %14) #7
  %.not10 = icmp ne i32 %15, 0
  %spec.select = zext i1 %.not10 to i32
  br label %16

16:                                               ; preds = %13, %1, %4
  %.08 = phi ptr [ %5, %4 ], [ null, %1 ], [ %14, %13 ]
  %.07 = phi ptr [ %2, %4 ], [ %2, %1 ], [ null, %13 ]
  %.0 = phi i32 [ 0, %4 ], [ 0, %1 ], [ %spec.select, %13 ]
  tail call void @EVP_MD_free(ptr noundef %.08) #7
  %17 = tail call i32 @OSSL_PROVIDER_unload(ptr noundef %.07) #7
  ret i32 %.0
}